; Function Attrs: mustprogress uwtable
define noundef zeroext i1 @_ZNK5arrow9ArraySpan16IsNullDenseUnionEl(ptr noundef nonnull readonly align 8 captures(none) dereferenceable(128) %0, i64 noundef %1) local_unnamed_addr #0 align 2 {
  %3 = load ptr, ptr %0, align 8, !tbaa !256
  %4 = getelementptr inbounds nuw i8, ptr %0, i64 56
  %5 = load ptr, ptr %4, align 8, !tbaa !68
  %6 = getelementptr inbounds nuw i8, ptr %0, i64 80
  %7 = load ptr, ptr %6, align 8, !tbaa !68
  %8 = getelementptr inbounds nuw i8, ptr %3, i64 96
  %9 = getelementptr inbounds nuw i8, ptr %0, i64 24
  %10 = load i64, ptr %9, align 8, !tbaa !65
  %11 = getelementptr i8, ptr %5, i64 %10
  %12 = getelementptr i8, ptr %11, i64 %1
  %13 = load i8, ptr %12, align 1, !tbaa !49
  %14 = sext i8 %13 to i64
  %15 = load ptr, ptr %8, align 8, !tbaa !50
  %16 = getelementptr inbounds nuw i32, ptr %15, i64 %14
  %17 = load i32, ptr %16, align 4, !tbaa !53
  %18 = sext i32 %17 to i64
  %19 = getelementptr i32, ptr %7, i64 %10
  %20 = getelementptr i32, ptr %19, i64 %1
  %21 = load i32, ptr %20, align 4, !tbaa !53
  %22 = sext i32 %21 to i64
  %23 = getelementptr inbounds nuw i8, ptr %0, i64 104
  %24 = load ptr, ptr %23, align 8, !tbaa !64
  %25 = getelementptr inbounds nuw %"struct.arrow::ArraySpan", ptr %24, i64 %18
  %26 = getelementptr inbounds nuw i8, ptr %25, i64 32
  %27 = load ptr, ptr %26, align 8, !tbaa !68
  %.not.i.i = icmp eq ptr %27, null
  br i1 %.not.i.i, label %41, label %28

28:                                               ; preds = %2
  %29 = getelementptr inbounds nuw i8, ptr %25, i64 24
  %30 = load i64, ptr %29, align 8, !tbaa !65
  %31 = add nsw i64 %30, %22
  %32 = lshr i64 %31, 3
  %33 = getelementptr inbounds nuw i8, ptr %27, i64 %32
  %34 = load i8, ptr %33, align 1, !tbaa !49
  %35 = zext i8 %34 to i32
  %36 = trunc i64 %31 to i32
  %37 = and i32 %36, 7
  %38 = shl nuw nsw i32 1, %37
  %39 = and i32 %38, %35
  %40 = icmp ne i32 %39, 0
  br label %_ZNK5arrow9ArraySpan6IsNullEl.exit

41:                                               ; preds = %2
  %42 = load ptr, ptr %25, align 8, !tbaa !70
  %43 = getelementptr inbounds nuw i8, ptr %42, i64 40
  %44 = load i32, ptr %43, align 8, !tbaa !71
  switch i32 %44, label %54 [
    i32 27, label %45
    i32 28, label %48
    i32 38, label %51
  ]

45:                                               ; preds = %41
  %46 = tail call noundef zeroext i1 @_ZNK5arrow9ArraySpan17IsNullSparseUnionEl(ptr noundef nonnull align 8 dereferenceable(128) %25, i64 noundef %22)
  %47 = xor i1 %46, true
  br label %_ZNK5arrow9ArraySpan6IsNullEl.exit

48:                                               ; preds = %41
  %49 = tail call noundef zeroext i1 @_ZNK5arrow9ArraySpan16IsNullDenseUnionEl(ptr noundef nonnull align 8 dereferenceable(128) %25, i64 noundef %22)
  %50 = xor i1 %49, true
  br label %_ZNK5arrow9ArraySpan6IsNullEl.exit

51:                                               ; preds = %41
  %52 = tail call noundef zeroext i1 @_ZNK5arrow9ArraySpan19IsNullRunEndEncodedEl(ptr noundef nonnull align 8 dereferenceable(128) %25, i64 noundef %22)
  %53 = xor i1 %52, true
  br label %_ZNK5arrow9ArraySpan6IsNullEl.exit

54:                                               ; preds = %41
  %55 = getelementptr inbounds nuw i8, ptr %25, i64 16
  %56 = load i64, ptr %55, align 8, !tbaa !57
  %57 = getelementptr inbounds nuw i8, ptr %25, i64 8
  %58 = load i64, ptr %57, align 8, !tbaa !90
  %59 = icmp ne i64 %56, %58
  br label %_ZNK5arrow9ArraySpan6IsNullEl.exit

_ZNK5arrow9ArraySpan6IsNullEl.exit:               ; preds = %28, %45, %48, %51, %54
  %.0.i.i = phi i1 [ %40, %28 ], [ %47, %45 ], [ %50, %48 ], [ %53, %51 ], [ %59, %54 ]
  %60 = xor i1 %.0.i.i, true
  ret i1 %60
}